; Function Attrs: nounwind sspstrong uwtable
define internal fastcc i64 @dump_parser_array(i64 noundef %0, ptr noundef readonly captures(none) %1) unnamed_addr #0 {
  %3 = load i32, ptr %1, align 8, !tbaa !374
  %.not = icmp eq i32 %3, 3
  br i1 %.not, label %5, label %4

4:                                                ; preds = %2
  tail call void (ptr, ...) @rb_bug(ptr noundef nonnull @.str.42, i32 noundef %3) #15
  unreachable

5:                                                ; preds = %2
  %6 = tail call i64 @rb_ary_new() #11
  %7 = getelementptr inbounds nuw i8, ptr %1, i64 16
  %8 = load i64, ptr %7, align 8, !tbaa !85
  %9 = icmp sgt i64 %8, 0
  br i1 %9, label %.lr.ph, label %._crit_edge

.lr.ph:                                           ; preds = %5
  %10 = getelementptr inbounds nuw i8, ptr %1, i64 8
  br label %11

._crit_edge:                                      ; preds = %20, %5
  ret i64 %6

11:                                               ; preds = %.lr.ph, %20
  %.014 = phi i64 [ 0, %.lr.ph ], [ %23, %20 ]
  %12 = load ptr, ptr %10, align 8, !tbaa !87
  %13 = getelementptr ptr, ptr %12, i64 %.014
  %14 = load ptr, ptr %13, align 8, !tbaa !88
  %.not13 = icmp eq ptr %14, null
  br i1 %.not13, label %20, label %15

15:                                               ; preds = %11
  %16 = load i64, ptr @rb_cNode, align 8, !tbaa !47
  %17 = tail call i64 @rb_data_typed_object_zalloc(i64 noundef %16, i64 noundef 16, ptr noundef nonnull @rb_node_type) #11
  %18 = tail call ptr @rb_check_typeddata(i64 noundef %17, ptr noundef nonnull @rb_node_type) #11
  store i64 %0, ptr %18, align 8, !tbaa !70
  %19 = getelementptr inbounds nuw i8, ptr %18, i64 8
  store ptr %14, ptr %19, align 8, !tbaa !72
  br label %20

20:                                               ; preds = %11, %15
  %21 = phi i64 [ %17, %15 ], [ 4, %11 ]
  %22 = tail call i64 @rb_ary_push(i64 noundef %6, i64 noundef %21) #11
  %23 = add nuw nsw i64 %.014, 1
  %24 = load i64, ptr %7, align 8, !tbaa !85
  %25 = icmp slt i64 %23, %24
  br i1 %25, label %11, label %._crit_edge, !llvm.loop !375
}